target datalayout = "e-m:e-p270:32:32-p271:32:32-p272:64:64-i64:64-i128:128-f80:128-n8:16:32:64-S128"
target triple = "x86_64-pc-linux-gnu"

%struct.settings = type { i64, i32, i32, i32, ptr, i32, i32, i32, ptr, ptr, i32, double, i32, i32, i32, i8, i32, i32, i8, i32, i32, i32, i32, i32, i32, i8, i8, i8, i8, i8, i8, i8, i32, i32, double, double, i32, i32, i8, i32, i8, i8, ptr, i32, i32, i32, i32, double, double, i32, i8, i32, i32, i32, i32, i32, i8, i8, i8, ptr, i32, i32, i32, i32, i32, i32, i32, i32, i32, i32, double, i8, i32, i32, ptr, i32 }
%struct.conn = type { ptr, i32, i8, i8, i8, i8, i8, i8, i8, i8, ptr, i32, i32, i32, %struct.event, i16, i16, ptr, ptr, i32, i32, ptr, ptr, ptr, i32, ptr, i32, i32, i32, i32, i32, i32, i32, %struct.sockaddr_in6, i32, i8, %struct.anon.8, %union.protocol_binary_request_header, i64, i64, i16, i32, i32, ptr, ptr, ptr, ptr, ptr, ptr }
%struct.event = type { %struct.event_callback, %union.anon.0, i32, ptr, %union.anon.2, i16, i16, %struct.timeval }
%struct.event_callback = type { %struct.anon, i16, i8, i8, %union.anon, ptr }
%struct.anon = type { ptr, ptr }
%union.anon = type { ptr }
%union.anon.0 = type { %struct.anon.1 }
%struct.anon.1 = type { ptr, ptr }
%union.anon.2 = type { %struct.anon.3 }
%struct.anon.3 = type { %struct.anon.4, %struct.timeval }
%struct.anon.4 = type { ptr, ptr }
%struct.timeval = type { i64, i64 }
%struct.sockaddr_in6 = type { i16, i16, i32, %struct.in6_addr, i32 }
%struct.in6_addr = type { %union.anon.7 }
%union.anon.7 = type { [4 x i32] }
%struct.anon.8 = type { ptr, i64, i64 }
%union.protocol_binary_request_header = type { %struct.anon.9 }
%struct.anon.9 = type { i8, i8, i16, i8, i8, i16, i32, i32, i64 }
%struct._stritem = type { ptr, ptr, ptr, i32, i32, i32, i16, i16, i8, i8, [0 x %union.anon.11] }
%union.anon.11 = type { i64 }

@stderr = external global ptr, align 8
@settings = external global %struct.settings, align 8
@.str.6 = private unnamed_addr constant [14 x i8] c"Out of memory\00", align 1
@.str.7 = private unnamed_addr constant [16 x i8] c"Unknown command\00", align 1
@.str.8 = private unnamed_addr constant [10 x i8] c"Not found\00", align 1
@.str.9 = private unnamed_addr constant [18 x i8] c"Invalid arguments\00", align 1
@.str.10 = private unnamed_addr constant [21 x i8] c"Data exists for key.\00", align 1
@.str.11 = private unnamed_addr constant [11 x i8] c"Too large.\00", align 1
@.str.12 = private unnamed_addr constant [47 x i8] c"Non-numeric server-side value for incr or decr\00", align 1
@.str.13 = private unnamed_addr constant [12 x i8] c"Not stored.\00", align 1
@.str.14 = private unnamed_addr constant [14 x i8] c"Auth failure.\00", align 1
@.str.15 = private unnamed_addr constant [16 x i8] c"UNHANDLED ERROR\00", align 1
@.str.16 = private unnamed_addr constant [25 x i8] c">%d UNHANDLED ERROR: %d\0A\00", align 1
@.str.17 = private unnamed_addr constant [26 x i8] c">%d Writing an error: %s\0A\00", align 1
@.str.37 = private unnamed_addr constant [43 x i8] c"SERVER_ERROR Out of memory allocating item\00", align 1
@.str.48 = private unnamed_addr constant [17 x i8] c"Value len is %d\0A\00", align 1

; Function Attrs: nounwind uwtable
define dso_local void @write_bin_error(ptr noundef %0, i32 noundef %1, ptr noundef %2, i32 noundef %3) #0 {
  %5 = alloca ptr, align 8
  %6 = alloca i32, align 4
  %7 = alloca ptr, align 8
  %8 = alloca i32, align 4
  %9 = alloca i64, align 8
  store ptr %0, ptr %5, align 8, !tbaa !4
  store i32 %1, ptr %6, align 4, !tbaa !30
  store ptr %2, ptr %7, align 8, !tbaa !61
  store i32 %3, ptr %8, align 4, !tbaa !30
  call void @llvm.lifetime.start.p0(i64 8, ptr %9) #8
  %10 = load ptr, ptr %7, align 8, !tbaa !61
  %11 = icmp ne ptr %10, null
  br i1 %11, label %31, label %12

12:                                               ; preds = %4
  %13 = load i32, ptr %6, align 4, !tbaa !30
  switch i32 %13, label %23 [
    i32 130, label %14
    i32 129, label %15
    i32 1, label %16
    i32 4, label %17
    i32 2, label %18
    i32 3, label %19
    i32 6, label %20
    i32 5, label %21
    i32 32, label %22
  ]

14:                                               ; preds = %12
  store ptr @.str.6, ptr %7, align 8, !tbaa !61
  br label %30

15:                                               ; preds = %12
  store ptr @.str.7, ptr %7, align 8, !tbaa !61
  br label %30

16:                                               ; preds = %12
  store ptr @.str.8, ptr %7, align 8, !tbaa !61
  br label %30

17:                                               ; preds = %12
  store ptr @.str.9, ptr %7, align 8, !tbaa !61
  br label %30

18:                                               ; preds = %12
  store ptr @.str.10, ptr %7, align 8, !tbaa !61
  br label %30

19:                                               ; preds = %12
  store ptr @.str.11, ptr %7, align 8, !tbaa !61
  br label %30

20:                                               ; preds = %12
  store ptr @.str.12, ptr %7, align 8, !tbaa !61
  br label %30

21:                                               ; preds = %12
  store ptr @.str.13, ptr %7, align 8, !tbaa !61
  br label %30

22:                                               ; preds = %12
  store ptr @.str.14, ptr %7, align 8, !tbaa !61
  br label %30

23:                                               ; preds = %12
  store ptr @.str.15, ptr %7, align 8, !tbaa !61
  %24 = load ptr, ptr @stderr, align 8, !tbaa !28
  %25 = load ptr, ptr %5, align 8, !tbaa !4
  %26 = getelementptr inbounds nuw %struct.conn, ptr %25, i32 0, i32 1
  %27 = load i32, ptr %26, align 8, !tbaa !42
  %28 = load i32, ptr %6, align 4, !tbaa !30
  %29 = call i32 (ptr, ptr, ...) @fprintf(ptr noundef %24, ptr noundef @.str.16, i32 noundef %27, i32 noundef %28) #8
  br label %30

30:                                               ; preds = %23, %22, %21, %20, %19, %18, %17, %16, %15, %14
  br label %31

31:                                               ; preds = %30, %4
  %32 = load i32, ptr getelementptr inbounds nuw (%struct.settings, ptr @settings, i32 0, i32 5), align 8, !tbaa !62
  %33 = icmp sgt i32 %32, 1
  br i1 %33, label %34, label %41

34:                                               ; preds = %31
  %35 = load ptr, ptr @stderr, align 8, !tbaa !28
  %36 = load ptr, ptr %5, align 8, !tbaa !4
  %37 = getelementptr inbounds nuw %struct.conn, ptr %36, i32 0, i32 1
  %38 = load i32, ptr %37, align 8, !tbaa !42
  %39 = load ptr, ptr %7, align 8, !tbaa !61
  %40 = call i32 (ptr, ptr, ...) @fprintf(ptr noundef %35, ptr noundef @.str.17, i32 noundef %38, ptr noundef %39) #8
  br label %41

41:                                               ; preds = %34, %31
  %42 = load ptr, ptr %7, align 8, !tbaa !61
  %43 = call i64 @strlen(ptr noundef %42) #9
  store i64 %43, ptr %9, align 8, !tbaa !41
  %44 = load ptr, ptr %5, align 8, !tbaa !4
  %45 = load i32, ptr %6, align 4, !tbaa !30
  %46 = trunc i32 %45 to i16
  %47 = load i64, ptr %9, align 8, !tbaa !41
  %48 = trunc i64 %47 to i32
  call void @add_bin_header(ptr noundef %44, i16 noundef zeroext %46, i8 noundef zeroext 0, i16 noundef zeroext 0, i32 noundef %48)
  %49 = load i64, ptr %9, align 8, !tbaa !41
  %50 = icmp ugt i64 %49, 0
  br i1 %50, label %51, label %58

51:                                               ; preds = %41
  %52 = load ptr, ptr %5, align 8, !tbaa !4
  %53 = getelementptr inbounds nuw %struct.conn, ptr %52, i32 0, i32 21
  %54 = load ptr, ptr %53, align 8, !tbaa !66
  %55 = load ptr, ptr %7, align 8, !tbaa !61
  %56 = load i64, ptr %9, align 8, !tbaa !41
  %57 = trunc i64 %56 to i32
  call void @resp_add_iov(ptr noundef %54, ptr noundef %55, i32 noundef %57)
  br label %58

58:                                               ; preds = %51, %41
  %59 = load i32, ptr %8, align 4, !tbaa !30
  %60 = icmp sgt i32 %59, 0
  br i1 %60, label %61, label %66

61:                                               ; preds = %58
  %62 = load i32, ptr %8, align 4, !tbaa !30
  %63 = load ptr, ptr %5, align 8, !tbaa !4
  %64 = getelementptr inbounds nuw %struct.conn, ptr %63, i32 0, i32 26
  store i32 %62, ptr %64, align 8, !tbaa !81
  %65 = load ptr, ptr %5, align 8, !tbaa !4
  call void @conn_set_state(ptr noundef %65, i32 noundef 7)
  br label %68

66:                                               ; preds = %58
  %67 = load ptr, ptr %5, align 8, !tbaa !4
  call void @conn_set_state(ptr noundef %67, i32 noundef 9)
  br label %68

68:                                               ; preds = %66, %61
  call void @llvm.lifetime.end.p0(i64 8, ptr %9) #8
  ret void
}

; Function Attrs: nounwind uwtable
define internal ptr @binary_get_key(ptr noundef %0) #0 {
  %2 = alloca ptr, align 8
  store ptr %0, ptr %2, align 8, !tbaa !4
  %3 = load ptr, ptr %2, align 8, !tbaa !4
  %4 = getelementptr inbounds nuw %struct.conn, ptr %3, i32 0, i32 18
  %5 = load ptr, ptr %4, align 8, !tbaa !69
  %6 = load ptr, ptr %2, align 8, !tbaa !4
  %7 = getelementptr inbounds nuw %struct.conn, ptr %6, i32 0, i32 37
  %8 = getelementptr inbounds nuw %struct.anon.9, ptr %7, i32 0, i32 2
  %9 = load i16, ptr %8, align 2, !tbaa !34
  %10 = zext i16 %9 to i32
  %11 = sext i32 %10 to i64
  %12 = sub i64 0, %11
  %13 = getelementptr inbounds i8, ptr %5, i64 %12
  ret ptr %13
}

; Function Attrs: nounwind uwtable
define internal void @process_bin_append_prepend(ptr noundef %0) #0 {
  %2 = alloca ptr, align 8
  %3 = alloca ptr, align 8
  %4 = alloca i16, align 2
  %5 = alloca i32, align 4
  %6 = alloca ptr, align 8
  %7 = alloca i32, align 4
  store ptr %0, ptr %2, align 8, !tbaa !4
  call void @llvm.lifetime.start.p0(i64 8, ptr %3) #8
  call void @llvm.lifetime.start.p0(i64 2, ptr %4) #8
  call void @llvm.lifetime.start.p0(i64 4, ptr %5) #8
  call void @llvm.lifetime.start.p0(i64 8, ptr %6) #8
  %8 = load ptr, ptr %2, align 8, !tbaa !4
  %9 = call ptr @binary_get_key(ptr noundef %8)
  store ptr %9, ptr %3, align 8, !tbaa !61
  %10 = load ptr, ptr %2, align 8, !tbaa !4
  %11 = getelementptr inbounds nuw %struct.conn, ptr %10, i32 0, i32 37
  %12 = getelementptr inbounds nuw %struct.anon.9, ptr %11, i32 0, i32 2
  %13 = load i16, ptr %12, align 2, !tbaa !34
  store i16 %13, ptr %4, align 2, !tbaa !37
  %14 = load ptr, ptr %2, align 8, !tbaa !4
  %15 = getelementptr inbounds nuw %struct.conn, ptr %14, i32 0, i32 37
  %16 = getelementptr inbounds nuw %struct.anon.9, ptr %15, i32 0, i32 6
  %17 = load i32, ptr %16, align 8, !tbaa !34
  %18 = load i16, ptr %4, align 2, !tbaa !37
  %19 = zext i16 %18 to i32
  %20 = sub i32 %17, %19
  store i32 %20, ptr %5, align 4, !tbaa !30
  %21 = load i32, ptr getelementptr inbounds nuw (%struct.settings, ptr @settings, i32 0, i32 5), align 8, !tbaa !62
  %22 = icmp sgt i32 %21, 1
  br i1 %22, label %23, label %27

23:                                               ; preds = %1
  %24 = load ptr, ptr @stderr, align 8, !tbaa !28
  %25 = load i32, ptr %5, align 4, !tbaa !30
  %26 = call i32 (ptr, ptr, ...) @fprintf(ptr noundef %24, ptr noundef @.str.48, i32 noundef %25) #8
  br label %27

27:                                               ; preds = %23, %1
  %28 = load i32, ptr getelementptr inbounds nuw (%struct.settings, ptr @settings, i32 0, i32 16), align 8, !tbaa !92
  %29 = icmp ne i32 %28, 0
  br i1 %29, label %30, label %34

30:                                               ; preds = %27
  %31 = load ptr, ptr %3, align 8, !tbaa !61
  %32 = load i16, ptr %4, align 2, !tbaa !37
  %33 = zext i16 %32 to i64
  call void @stats_prefix_record_set(ptr noundef %31, i64 noundef %33)
  br label %34

34:                                               ; preds = %30, %27
  %35 = load ptr, ptr %3, align 8, !tbaa !61
  %36 = load i16, ptr %4, align 2, !tbaa !37
  %37 = zext i16 %36 to i64
  %38 = load i32, ptr %5, align 4, !tbaa !30
  %39 = add nsw i32 %38, 2
  %40 = call ptr @item_alloc(ptr noundef %35, i64 noundef %37, i32 noundef 0, i32 noundef 0, i32 noundef %39)
  store ptr %40, ptr %6, align 8, !tbaa !31
  %41 = load ptr, ptr %6, align 8, !tbaa !31
  %42 = icmp eq ptr %41, null
  br i1 %42, label %43, label %59

43:                                               ; preds = %34
  %44 = load i16, ptr %4, align 2, !tbaa !37
  %45 = zext i16 %44 to i64
  %46 = load i32, ptr %5, align 4, !tbaa !30
  %47 = add nsw i32 %46, 2
  %48 = call zeroext i1 @item_size_ok(i64 noundef %45, i32 noundef 0, i32 noundef %47)
  br i1 %48, label %52, label %49

49:                                               ; preds = %43
  %50 = load ptr, ptr %2, align 8, !tbaa !4
  %51 = load i32, ptr %5, align 4, !tbaa !30
  call void @write_bin_error(ptr noundef %50, i32 noundef 3, ptr noundef null, i32 noundef %51)
  br label %57

52:                                               ; preds = %43
  %53 = load ptr, ptr %2, align 8, !tbaa !4
  call void @out_of_memory(ptr noundef %53, ptr noundef @.str.37)
  %54 = load i32, ptr %5, align 4, !tbaa !30
  %55 = load ptr, ptr %2, align 8, !tbaa !4
  %56 = getelementptr inbounds nuw %struct.conn, ptr %55, i32 0, i32 26
  store i32 %54, ptr %56, align 8, !tbaa !81
  br label %57

57:                                               ; preds = %52, %49
  %58 = load ptr, ptr %2, align 8, !tbaa !4
  call void @conn_set_state(ptr noundef %58, i32 noundef 7)
  store i32 1, ptr %7, align 4
  br label %123

59:                                               ; preds = %34
  %60 = load ptr, ptr %6, align 8, !tbaa !31
  %61 = getelementptr inbounds nuw %struct._stritem, ptr %60, i32 0, i32 7
  %62 = load i16, ptr %61, align 2, !tbaa !37
  %63 = zext i16 %62 to i32
  %64 = and i32 %63, 2
  %65 = icmp ne i32 %64, 0
  br i1 %65, label %66, label %74

66:                                               ; preds = %59
  %67 = load ptr, ptr %2, align 8, !tbaa !4
  %68 = getelementptr inbounds nuw %struct.conn, ptr %67, i32 0, i32 37
  %69 = getelementptr inbounds nuw %struct.anon.9, ptr %68, i32 0, i32 8
  %70 = load i64, ptr %69, align 8, !tbaa !34
  %71 = load ptr, ptr %6, align 8, !tbaa !31
  %72 = getelementptr inbounds nuw %struct._stritem, ptr %71, i32 0, i32 10
  %73 = getelementptr inbounds [0 x %union.anon.11], ptr %72, i64 0, i64 0
  store i64 %70, ptr %73, align 8, !tbaa !34
  br label %74

74:                                               ; preds = %66, %59
  %75 = load ptr, ptr %2, align 8, !tbaa !4
  %76 = getelementptr inbounds nuw %struct.conn, ptr %75, i32 0, i32 40
  %77 = load i16, ptr %76, align 8, !tbaa !53
  %78 = sext i16 %77 to i32
  switch i32 %78, label %85 [
    i32 14, label %79
    i32 15, label %82
  ]

79:                                               ; preds = %74
  %80 = load ptr, ptr %2, align 8, !tbaa !4
  %81 = getelementptr inbounds nuw %struct.conn, ptr %80, i32 0, i32 40
  store i16 4, ptr %81, align 8, !tbaa !53
  br label %86

82:                                               ; preds = %74
  %83 = load ptr, ptr %2, align 8, !tbaa !4
  %84 = getelementptr inbounds nuw %struct.conn, ptr %83, i32 0, i32 40
  store i16 5, ptr %84, align 8, !tbaa !53
  br label %86

85:                                               ; preds = %74
  br label %86

86:                                               ; preds = %85, %82, %79
  %87 = load ptr, ptr %6, align 8, !tbaa !31
  %88 = load ptr, ptr %2, align 8, !tbaa !4
  %89 = getelementptr inbounds nuw %struct.conn, ptr %88, i32 0, i32 25
  store ptr %87, ptr %89, align 8, !tbaa !27
  %90 = load ptr, ptr %6, align 8, !tbaa !31
  %91 = getelementptr inbounds nuw %struct._stritem, ptr %90, i32 0, i32 10
  %92 = load ptr, ptr %6, align 8, !tbaa !31
  %93 = getelementptr inbounds nuw %struct._stritem, ptr %92, i32 0, i32 9
  %94 = load i8, ptr %93, align 1, !tbaa !34
  %95 = zext i8 %94 to i32
  %96 = sext i32 %95 to i64
  %97 = getelementptr inbounds i8, ptr %91, i64 %96
  %98 = getelementptr inbounds i8, ptr %97, i64 1
  %99 = load ptr, ptr %6, align 8, !tbaa !31
  %100 = getelementptr inbounds nuw %struct._stritem, ptr %99, i32 0, i32 7
  %101 = load i16, ptr %100, align 2, !tbaa !37
  %102 = zext i16 %101 to i32
  %103 = and i32 %102, 256
  %104 = icmp ne i32 %103, 0
  %105 = select i1 %104, i64 4, i64 0
  %106 = getelementptr inbounds nuw i8, ptr %98, i64 %105
  %107 = load ptr, ptr %6, align 8, !tbaa !31
  %108 = getelementptr inbounds nuw %struct._stritem, ptr %107, i32 0, i32 7
  %109 = load i16, ptr %108, align 2, !tbaa !37
  %110 = zext i16 %109 to i32
  %111 = and i32 %110, 2
  %112 = icmp ne i32 %111, 0
  %113 = select i1 %112, i64 8, i64 0
  %114 = getelementptr inbounds nuw i8, ptr %106, i64 %113
  %115 = load ptr, ptr %2, align 8, !tbaa !4
  %116 = getelementptr inbounds nuw %struct.conn, ptr %115, i32 0, i32 23
  store ptr %114, ptr %116, align 8, !tbaa !38
  %117 = load i32, ptr %5, align 4, !tbaa !30
  %118 = load ptr, ptr %2, align 8, !tbaa !4
  %119 = getelementptr inbounds nuw %struct.conn, ptr %118, i32 0, i32 24
  store i32 %117, ptr %119, align 8, !tbaa !99
  %120 = load ptr, ptr %2, align 8, !tbaa !4
  call void @conn_set_state(ptr noundef %120, i32 noundef 6)
  %121 = load ptr, ptr %2, align 8, !tbaa !4
  %122 = getelementptr inbounds nuw %struct.conn, ptr %121, i32 0, i32 12
  store i32 3, ptr %122, align 4, !tbaa !9
  store i32 0, ptr %7, align 4
  br label %123

123:                                              ; preds = %86, %57
  call void @llvm.lifetime.end.p0(i64 8, ptr %6) #8
  call void @llvm.lifetime.end.p0(i64 4, ptr %5) #8
  call void @llvm.lifetime.end.p0(i64 2, ptr %4) #8
  call void @llvm.lifetime.end.p0(i64 8, ptr %3) #8
  %124 = load i32, ptr %7, align 4
  switch i32 %124, label %126 [
    i32 0, label %125
    i32 1, label %125
  ]

125:                                              ; preds = %123, %123
  ret void

126:                                              ; preds = %123
  unreachable
}