; Function Attrs: nounwind uwtable
define internal fastcc void @process_bin_append_prepend(ptr noundef %0) unnamed_addr #0 {
  %2 = getelementptr i8, ptr %0, i64 192
  %.val = load ptr, ptr %2, align 8, !tbaa !69
  %3 = getelementptr i8, ptr %0, i64 338
  %.val38 = load i16, ptr %3, align 2, !tbaa !28
  %4 = zext i16 %.val38 to i64
  %5 = sub nsw i64 0, %4
  %6 = getelementptr inbounds i8, ptr %.val, i64 %5
  %7 = getelementptr inbounds nuw i8, ptr %0, i64 344
  %8 = load i32, ptr %7, align 8, !tbaa !28
  %9 = zext i16 %.val38 to i32
  %10 = sub i32 %8, %9
  %11 = load i32, ptr getelementptr inbounds nuw (i8, ptr @settings, i64 32), align 8, !tbaa !57
  %12 = icmp sgt i32 %11, 1
  br i1 %12, label %13, label %16

13:                                               ; preds = %1
  %14 = load ptr, ptr @stderr, align 8, !tbaa !58
  %15 = tail call i32 (ptr, ptr, ...) @fprintf(ptr noundef %14, ptr noundef nonnull @.str.48, i32 noundef %10) #12
  br label %16

16:                                               ; preds = %13, %1
  %17 = load i32, ptr getelementptr inbounds nuw (i8, ptr @settings, i64 96), align 8, !tbaa !85
  %.not = icmp eq i32 %17, 0
  br i1 %.not, label %19, label %18

18:                                               ; preds = %16
  tail call void @stats_prefix_record_set(ptr noundef %6, i64 noundef %4) #11
  br label %19

19:                                               ; preds = %18, %16
  %20 = add nsw i32 %10, 2
  %21 = tail call ptr @item_alloc(ptr noundef %6, i64 noundef %4, i32 noundef 0, i32 noundef 0, i32 noundef %20) #11
  %22 = icmp eq ptr %21, null
  br i1 %22, label %23, label %42

23:                                               ; preds = %19
  %24 = tail call zeroext i1 @item_size_ok(i64 noundef %4, i32 noundef 0, i32 noundef %20) #11
  br i1 %24, label %39, label %25

25:                                               ; preds = %23
  %26 = load i32, ptr getelementptr inbounds nuw (i8, ptr @settings, i64 32), align 8, !tbaa !57
  %27 = icmp sgt i32 %26, 1
  br i1 %27, label %28, label %33

28:                                               ; preds = %25
  %29 = load ptr, ptr @stderr, align 8, !tbaa !58
  %30 = getelementptr inbounds nuw i8, ptr %0, i64 8
  %31 = load i32, ptr %30, align 8, !tbaa !37
  %32 = tail call i32 (ptr, ptr, ...) @fprintf(ptr noundef %29, ptr noundef nonnull @.str.17, i32 noundef %31, ptr noundef nonnull @.str.11) #12
  br label %33

33:                                               ; preds = %28, %25
  tail call fastcc void @add_bin_header(ptr noundef nonnull %0, i16 noundef zeroext 3, i8 noundef zeroext 0, i16 noundef zeroext 0, i32 noundef 10)
  %34 = getelementptr inbounds nuw i8, ptr %0, i64 208
  %35 = load ptr, ptr %34, align 8, !tbaa !60
  tail call void @resp_add_iov(ptr noundef %35, ptr noundef nonnull @.str.11, i32 noundef 10) #11
  %36 = icmp sgt i32 %10, 0
  br i1 %36, label %37, label %write_bin_error.exit

37:                                               ; preds = %33
  %38 = getelementptr inbounds nuw i8, ptr %0, i64 248
  store i32 %10, ptr %38, align 8, !tbaa !64
  br label %write_bin_error.exit

write_bin_error.exit:                             ; preds = %33, %37
  %.sink.i = phi i32 [ 7, %37 ], [ 9, %33 ]
  tail call void @conn_set_state(ptr noundef nonnull %0, i32 noundef %.sink.i) #11
  br label %41

39:                                               ; preds = %23
  tail call void @out_of_memory(ptr noundef nonnull %0, ptr noundef nonnull @.str.37) #11
  %40 = getelementptr inbounds nuw i8, ptr %0, i64 248
  store i32 %10, ptr %40, align 8, !tbaa !64
  br label %41

41:                                               ; preds = %39, %write_bin_error.exit
  tail call void @conn_set_state(ptr noundef nonnull %0, i32 noundef 7) #11
  br label %75

42:                                               ; preds = %19
  %43 = getelementptr inbounds nuw i8, ptr %21, i64 38
  %44 = load i16, ptr %43, align 2, !tbaa !31
  %45 = and i16 %44, 2
  %.not35 = icmp eq i16 %45, 0
  br i1 %.not35, label %50, label %46

46:                                               ; preds = %42
  %47 = getelementptr inbounds nuw i8, ptr %0, i64 352
  %48 = load i64, ptr %47, align 8, !tbaa !28
  %49 = getelementptr inbounds nuw i8, ptr %21, i64 48
  store i64 %48, ptr %49, align 8, !tbaa !28
  br label %50

50:                                               ; preds = %46, %42
  %51 = getelementptr inbounds nuw i8, ptr %0, i64 376
  %52 = load i16, ptr %51, align 8, !tbaa !48
  switch i16 %52, label %54 [
    i16 14, label %.sink.split
    i16 15, label %53
  ]

53:                                               ; preds = %50
  br label %.sink.split

.sink.split:                                      ; preds = %50, %53
  %.sink = phi i16 [ 5, %53 ], [ 4, %50 ]
  store i16 %.sink, ptr %51, align 8, !tbaa !48
  br label %54

54:                                               ; preds = %.sink.split, %50
  %55 = getelementptr inbounds nuw i8, ptr %0, i64 240
  store ptr %21, ptr %55, align 8, !tbaa !26
  %56 = getelementptr inbounds nuw i8, ptr %21, i64 48
  %57 = getelementptr inbounds nuw i8, ptr %21, i64 41
  %58 = load i8, ptr %57, align 1, !tbaa !28
  %59 = zext i8 %58 to i64
  %60 = getelementptr inbounds nuw i8, ptr %56, i64 %59
  %61 = getelementptr inbounds nuw i8, ptr %60, i64 1
  %62 = load i16, ptr %43, align 2, !tbaa !31
  %63 = zext i16 %62 to i32
  %64 = lshr i32 %63, 6
  %65 = and i32 %64, 4
  %66 = zext nneg i32 %65 to i64
  %67 = getelementptr inbounds nuw i8, ptr %61, i64 %66
  %68 = shl nuw nsw i32 %63, 2
  %69 = and i32 %68, 8
  %70 = zext nneg i32 %69 to i64
  %71 = getelementptr inbounds nuw i8, ptr %67, i64 %70
  %72 = getelementptr inbounds nuw i8, ptr %0, i64 224
  store ptr %71, ptr %72, align 8, !tbaa !33
  %73 = getelementptr inbounds nuw i8, ptr %0, i64 232
  store i32 %10, ptr %73, align 8, !tbaa !91
  tail call void @conn_set_state(ptr noundef nonnull %0, i32 noundef 6) #11
  %74 = getelementptr inbounds nuw i8, ptr %0, i64 36
  store i32 3, ptr %74, align 4, !tbaa !4
  br label %75

75:                                               ; preds = %54, %41
  ret void
}